target datalayout = "e-m:e-p270:32:32-p271:32:32-p272:64:64-i64:64-i128:128-f80:128-n8:16:32:64-S128"
target triple = "x86_64-pc-linux-gnu"

%"class.absl::lts_20240722::Status" = type { i64 }
%"class.absl::lts_20240722::internal_statusor::StatusOrData" = type { %union.anon.77, %union.anon.78 }
%union.anon.77 = type { %"class.absl::lts_20240722::Status" }
%union.anon.78 = type { %"class.std::unique_ptr.79" }
%"class.std::unique_ptr.79" = type { %"struct.std::__uniq_ptr_data.80" }
%"struct.std::__uniq_ptr_data.80" = type { %"class.std::__uniq_ptr_impl.81" }
%"class.std::__uniq_ptr_impl.81" = type { %"class.std::tuple.82" }
%"class.std::tuple.82" = type { %"struct.std::_Tuple_impl.83" }
%"struct.std::_Tuple_impl.83" = type { %"struct.std::_Head_base.86" }
%"struct.std::_Head_base.86" = type { ptr }
%"class.grpc_core::RefCountedPtr" = type { ptr }
%"class.grpc_core::(anonymous namespace)::ServiceConfigChannelArgFilter" = type { %"class.grpc_core::ImplementChannelFilter", %"class.grpc_core::RefCountedPtr" }
%"class.grpc_core::ImplementChannelFilter" = type { %"class.grpc_core::ChannelFilter" }
%"class.grpc_core::ChannelFilter" = type { ptr }
%"class.grpc_core::RefCounted" = type { %"class.grpc_core::PolymorphicRefCount", %"class.grpc_core::RefCount" }
%"class.grpc_core::PolymorphicRefCount" = type { ptr }
%"class.grpc_core::RefCount" = type { %"struct.std::atomic.101" }
%"struct.std::atomic.101" = type { %"struct.std::__atomic_base.102" }
%"struct.std::__atomic_base.102" = type { i64 }

; Function Attrs: alwaysinline mustprogress nounwind uwtable
define linkonce_odr noundef i64 @_ZNSt13__atomic_baseIlE9fetch_subElSt12memory_order(ptr noundef nonnull align 8 dereferenceable(8) %0, i64 noundef %1, i32 noundef %2) #8 comdat align 2 {
  %4 = alloca ptr, align 8
  %5 = alloca i64, align 8
  %6 = alloca i32, align 4
  %7 = alloca i64, align 8
  %8 = alloca i64, align 8
  store ptr %0, ptr %4, align 8, !tbaa !295
  store i64 %1, ptr %5, align 8, !tbaa !75
  store i32 %2, ptr %6, align 4, !tbaa !154
  %9 = load ptr, ptr %4, align 8
  %10 = getelementptr inbounds nuw %"struct.std::__atomic_base.102", ptr %9, i32 0, i32 0
  %11 = load i32, ptr %6, align 4, !tbaa !154
  %12 = load i64, ptr %5, align 8, !tbaa !75
  store i64 %12, ptr %7, align 8, !tbaa !75
  switch i32 %11, label %13 [
    i32 1, label %16
    i32 2, label %16
    i32 3, label %19
    i32 4, label %22
    i32 5, label %25
  ]

13:                                               ; preds = %3
  %14 = load i64, ptr %7, align 8
  %15 = atomicrmw sub ptr %10, i64 %14 monotonic, align 8
  store i64 %15, ptr %8, align 8
  br label %28

16:                                               ; preds = %3, %3
  %17 = load i64, ptr %7, align 8
  %18 = atomicrmw sub ptr %10, i64 %17 acquire, align 8
  store i64 %18, ptr %8, align 8
  br label %28

19:                                               ; preds = %3
  %20 = load i64, ptr %7, align 8
  %21 = atomicrmw sub ptr %10, i64 %20 release, align 8
  store i64 %21, ptr %8, align 8
  br label %28

22:                                               ; preds = %3
  %23 = load i64, ptr %7, align 8
  %24 = atomicrmw sub ptr %10, i64 %23 acq_rel, align 8
  store i64 %24, ptr %8, align 8
  br label %28

25:                                               ; preds = %3
  %26 = load i64, ptr %7, align 8
  %27 = atomicrmw sub ptr %10, i64 %26 seq_cst, align 8
  store i64 %27, ptr %8, align 8
  br label %28

28:                                               ; preds = %25, %22, %19, %16, %13
  %29 = load i64, ptr %8, align 8, !tbaa !75
  ret i64 %29
}

; Function Attrs: mustprogress nounwind uwtable
define internal noundef nonnull align 1 dereferenceable(1) ptr @_ZNSt10_Head_baseILm1ESt14default_deleteIN9grpc_core12_GLOBAL__N_129ServiceConfigChannelArgFilterEELb1EE7_M_headERS5_(ptr noundef nonnull align 1 dereferenceable(1) %0) #6 align 2 {
  %2 = alloca ptr, align 8
  store ptr %0, ptr %2, align 8, !tbaa !652
  %3 = load ptr, ptr %2, align 8, !tbaa !652
  ret ptr %3
}

; Function Attrs: mustprogress nounwind uwtable
define linkonce_odr void @_ZNK9grpc_core11UnrefDeleteclIKNS_13ServiceConfigEEEvPT_(ptr noundef nonnull align 1 dereferenceable(1) %0, ptr noundef %1) #6 comdat align 2 {
  %3 = alloca ptr, align 8
  %4 = alloca ptr, align 8
  store ptr %0, ptr %3, align 8, !tbaa !293
  store ptr %1, ptr %4, align 8, !tbaa !286
  %5 = load ptr, ptr %4, align 8, !tbaa !286
  %6 = icmp eq ptr %5, null
  br i1 %6, label %11, label %7

7:                                                ; preds = %2
  %8 = load ptr, ptr %5, align 8, !tbaa !52
  %9 = getelementptr inbounds ptr, ptr %8, i64 1
  %10 = load ptr, ptr %9, align 8
  call void %10(ptr noundef nonnull align 8 dereferenceable(16) %5) #3
  br label %11

11:                                               ; preds = %7, %2
  ret void
}

; Function Attrs: mustprogress nounwind uwtable
define linkonce_odr noundef zeroext i1 @_ZN9grpc_core8RefCount5UnrefEv(ptr noundef nonnull align 8 dereferenceable(8) %0) #6 comdat align 2 {
  %2 = alloca ptr, align 8
  %3 = alloca i64, align 8
  store ptr %0, ptr %2, align 8, !tbaa !291
  %4 = load ptr, ptr %2, align 8
  call void @llvm.lifetime.start.p0(i64 8, ptr %3) #3
  %5 = getelementptr inbounds nuw %"class.grpc_core::RefCount", ptr %4, i32 0, i32 0
  %6 = call noundef i64 @_ZNSt13__atomic_baseIlE9fetch_subElSt12memory_order(ptr noundef nonnull align 8 dereferenceable(8) %5, i64 noundef 1, i32 noundef 4) #3
  store i64 %6, ptr %3, align 8, !tbaa !75
  %7 = load i64, ptr %3, align 8, !tbaa !75
  %8 = icmp eq i64 %7, 1
  call void @llvm.lifetime.end.p0(i64 8, ptr %3) #3
  ret i1 %8
}

; Function Attrs: mustprogress nounwind uwtable
define internal noundef nonnull align 1 dereferenceable(1) ptr @_ZNSt11_Tuple_implILm1EJSt14default_deleteIN9grpc_core12_GLOBAL__N_129ServiceConfigChannelArgFilterEEEE7_M_headERS5_(ptr noundef nonnull align 1 dereferenceable(1) %0) #6 align 2 {
  %2 = alloca ptr, align 8
  store ptr %0, ptr %2, align 8, !tbaa !646
  %3 = load ptr, ptr %2, align 8, !tbaa !646
  %4 = call noundef nonnull align 1 dereferenceable(1) ptr @_ZNSt10_Head_baseILm1ESt14default_deleteIN9grpc_core12_GLOBAL__N_129ServiceConfigChannelArgFilterEELb1EE7_M_headERS5_(ptr noundef nonnull align 1 dereferenceable(1) %3) #3
  ret ptr %4
}

; Function Attrs: mustprogress nounwind uwtable
define internal noundef nonnull align 8 dereferenceable(8) ptr @_ZNSt10_Head_baseILm0EPN9grpc_core12_GLOBAL__N_129ServiceConfigChannelArgFilterELb0EE7_M_headERS4_(ptr noundef nonnull align 8 dereferenceable(8) %0) #6 align 2 {
  %2 = alloca ptr, align 8
  store ptr %0, ptr %2, align 8, !tbaa !648
  %3 = load ptr, ptr %2, align 8, !tbaa !648
  %4 = getelementptr inbounds nuw %"struct.std::_Head_base.86", ptr %3, i32 0, i32 0
  ret ptr %4
}

; Function Attrs: mustprogress uwtable
define linkonce_odr void @_ZNK9grpc_core10RefCountedINS_13ServiceConfigENS_19PolymorphicRefCountENS_11UnrefDeleteEE5UnrefEv(ptr noundef nonnull align 8 dereferenceable(16) %0) #4 comdat align 2 {
  %2 = alloca ptr, align 8
  store ptr %0, ptr %2, align 8, !tbaa !289
  %3 = load ptr, ptr %2, align 8
  %4 = getelementptr inbounds nuw %"class.grpc_core::RefCounted", ptr %3, i32 0, i32 1
  %5 = call noundef zeroext i1 @_ZN9grpc_core8RefCount5UnrefEv(ptr noundef nonnull align 8 dereferenceable(8) %4)
  %6 = zext i1 %5 to i64
  %7 = call i64 @llvm.expect.i64(i64 %6, i64 0)
  %8 = icmp ne i64 %7, 0
  br i1 %8, label %9, label %10

9:                                                ; preds = %1
  call void @_ZNK9grpc_core11UnrefDeleteclIKNS_13ServiceConfigEEEvPT_(ptr noundef nonnull align 1 dereferenceable(1) %3, ptr noundef %3)
  br label %10

10:                                               ; preds = %9, %1
  ret void
}

; Function Attrs: mustprogress nounwind uwtable
define internal noundef nonnull align 1 dereferenceable(1) ptr @_ZSt12__get_helperILm1ESt14default_deleteIN9grpc_core12_GLOBAL__N_129ServiceConfigChannelArgFilterEEJEERT0_RSt11_Tuple_implIXT_EJS5_DpT1_EE(ptr noundef nonnull align 1 dereferenceable(1) %0) #6 {
  %2 = alloca ptr, align 8
  store ptr %0, ptr %2, align 8, !tbaa !646
  %3 = load ptr, ptr %2, align 8, !tbaa !646
  %4 = call noundef nonnull align 1 dereferenceable(1) ptr @_ZNSt11_Tuple_implILm1EJSt14default_deleteIN9grpc_core12_GLOBAL__N_129ServiceConfigChannelArgFilterEEEE7_M_headERS5_(ptr noundef nonnull align 1 dereferenceable(1) %3) #3
  ret ptr %4
}

; Function Attrs: mustprogress nounwind uwtable
define internal noundef nonnull align 8 dereferenceable(8) ptr @_ZNSt11_Tuple_implILm0EJPN9grpc_core12_GLOBAL__N_129ServiceConfigChannelArgFilterESt14default_deleteIS2_EEE7_M_headERS6_(ptr noundef nonnull align 8 dereferenceable(8) %0) #6 align 2 {
  %2 = alloca ptr, align 8
  store ptr %0, ptr %2, align 8, !tbaa !644
  %3 = load ptr, ptr %2, align 8, !tbaa !644
  %4 = call noundef nonnull align 8 dereferenceable(8) ptr @_ZNSt10_Head_baseILm0EPN9grpc_core12_GLOBAL__N_129ServiceConfigChannelArgFilterELb0EE7_M_headERS4_(ptr noundef nonnull align 8 dereferenceable(8) %3) #3
  ret ptr %4
}

; Function Attrs: mustprogress nounwind uwtable
define linkonce_odr void @_ZN9grpc_core13ChannelFilterD2Ev(ptr noundef nonnull align 8 dereferenceable(8) %0) unnamed_addr #6 comdat align 2 {
  %2 = alloca ptr, align 8
  store ptr %0, ptr %2, align 8, !tbaa !131
  ret void
}

; Function Attrs: mustprogress nounwind uwtable
define linkonce_odr void @_ZN9grpc_core13RefCountedPtrINS_13ServiceConfigEED2Ev(ptr noundef nonnull align 8 dereferenceable(8) %0) unnamed_addr #6 comdat align 2 personality ptr @__gxx_personality_v0 {
  %2 = alloca ptr, align 8
  store ptr %0, ptr %2, align 8, !tbaa !243
  %3 = load ptr, ptr %2, align 8
  %4 = getelementptr inbounds nuw %"class.grpc_core::RefCountedPtr", ptr %3, i32 0, i32 0
  %5 = load ptr, ptr %4, align 8, !tbaa !245
  %6 = icmp ne ptr %5, null
  br i1 %6, label %7, label %11

7:                                                ; preds = %1
  %8 = getelementptr inbounds nuw %"class.grpc_core::RefCountedPtr", ptr %3, i32 0, i32 0
  %9 = load ptr, ptr %8, align 8, !tbaa !245
  invoke void @_ZNK9grpc_core10RefCountedINS_13ServiceConfigENS_19PolymorphicRefCountENS_11UnrefDeleteEE5UnrefEv(ptr noundef nonnull align 8 dereferenceable(16) %9)
          to label %10 unwind label %12

10:                                               ; preds = %7
  br label %11

11:                                               ; preds = %10, %1
  ret void

12:                                               ; preds = %7
  %13 = landingpad { ptr, i32 }
          catch ptr null
  %14 = extractvalue { ptr, i32 } %13, 0
  call void @__clang_call_terminate(ptr %14) #27
  unreachable
}

; Function Attrs: mustprogress nounwind uwtable
define internal noundef nonnull align 1 dereferenceable(1) ptr @_ZSt3getILm1EJPN9grpc_core12_GLOBAL__N_129ServiceConfigChannelArgFilterESt14default_deleteIS2_EEERNSt13tuple_elementIXT_ESt5tupleIJDpT0_EEE4typeERSA_(ptr noundef nonnull align 8 dereferenceable(8) %0) #6 {
  %2 = alloca ptr, align 8
  store ptr %0, ptr %2, align 8, !tbaa !642
  %3 = load ptr, ptr %2, align 8, !tbaa !642
  %4 = call noundef nonnull align 1 dereferenceable(1) ptr @_ZSt12__get_helperILm1ESt14default_deleteIN9grpc_core12_GLOBAL__N_129ServiceConfigChannelArgFilterEEJEERT0_RSt11_Tuple_implIXT_EJS5_DpT1_EE(ptr noundef nonnull align 1 dereferenceable(1) %3) #3
  ret ptr %4
}

; Function Attrs: mustprogress nounwind uwtable
define internal noundef nonnull align 8 dereferenceable(8) ptr @_ZSt12__get_helperILm0EPN9grpc_core12_GLOBAL__N_129ServiceConfigChannelArgFilterEJSt14default_deleteIS2_EEERT0_RSt11_Tuple_implIXT_EJS6_DpT1_EE(ptr noundef nonnull align 8 dereferenceable(8) %0) #6 {
  %2 = alloca ptr, align 8
  store ptr %0, ptr %2, align 8, !tbaa !644
  %3 = load ptr, ptr %2, align 8, !tbaa !644
  %4 = call noundef nonnull align 8 dereferenceable(8) ptr @_ZNSt11_Tuple_implILm0EJPN9grpc_core12_GLOBAL__N_129ServiceConfigChannelArgFilterESt14default_deleteIS2_EEE7_M_headERS6_(ptr noundef nonnull align 8 dereferenceable(8) %3) #3
  ret ptr %4
}

; Function Attrs: inlinehint mustprogress nounwind uwtable
define internal void @_ZN9grpc_core12_GLOBAL__N_129ServiceConfigChannelArgFilterD2Ev(ptr noundef nonnull align 8 dereferenceable(16) %0) unnamed_addr #10 align 2 {
  %2 = alloca ptr, align 8
  store ptr %0, ptr %2, align 8, !tbaa !128
  %3 = load ptr, ptr %2, align 8
  %4 = getelementptr inbounds nuw %"class.grpc_core::(anonymous namespace)::ServiceConfigChannelArgFilter", ptr %3, i32 0, i32 1
  call void @_ZN9grpc_core13RefCountedPtrINS_13ServiceConfigEED2Ev(ptr noundef nonnull align 8 dereferenceable(8) %4) #3
  call void @_ZN9grpc_core13ChannelFilterD2Ev(ptr noundef nonnull align 8 dereferenceable(8) %3) #3
  ret void
}

; Function Attrs: mustprogress nounwind uwtable
define internal noundef nonnull align 1 dereferenceable(1) ptr @_ZNSt15__uniq_ptr_implIN9grpc_core12_GLOBAL__N_129ServiceConfigChannelArgFilterESt14default_deleteIS2_EE10_M_deleterEv(ptr noundef nonnull align 8 dereferenceable(8) %0) #6 align 2 {
  %2 = alloca ptr, align 8
  store ptr %0, ptr %2, align 8, !tbaa !640
  %3 = load ptr, ptr %2, align 8
  %4 = getelementptr inbounds nuw %"class.std::__uniq_ptr_impl.81", ptr %3, i32 0, i32 0
  %5 = call noundef nonnull align 1 dereferenceable(1) ptr @_ZSt3getILm1EJPN9grpc_core12_GLOBAL__N_129ServiceConfigChannelArgFilterESt14default_deleteIS2_EEERNSt13tuple_elementIXT_ESt5tupleIJDpT0_EEE4typeERSA_(ptr noundef nonnull align 8 dereferenceable(8) %4) #3
  ret ptr %5
}

; Function Attrs: mustprogress nounwind uwtable
define internal noundef nonnull align 8 dereferenceable(8) ptr @_ZSt3getILm0EJPN9grpc_core12_GLOBAL__N_129ServiceConfigChannelArgFilterESt14default_deleteIS2_EEERNSt13tuple_elementIXT_ESt5tupleIJDpT0_EEE4typeERSA_(ptr noundef nonnull align 8 dereferenceable(8) %0) #6 {
  %2 = alloca ptr, align 8
  store ptr %0, ptr %2, align 8, !tbaa !642
  %3 = load ptr, ptr %2, align 8, !tbaa !642
  %4 = call noundef nonnull align 8 dereferenceable(8) ptr @_ZSt12__get_helperILm0EPN9grpc_core12_GLOBAL__N_129ServiceConfigChannelArgFilterEJSt14default_deleteIS2_EEERT0_RSt11_Tuple_implIXT_EJS6_DpT1_EE(ptr noundef nonnull align 8 dereferenceable(8) %3) #3
  ret ptr %4
}

; Function Attrs: inlinehint mustprogress nounwind uwtable
define linkonce_odr noundef ptr @_ZN4absl12lts_202407226Status12RepToPointerEm(i64 noundef %0) #10 comdat align 2 {
  %2 = alloca i64, align 8
  store i64 %0, ptr %2, align 8, !tbaa !75
  %3 = load i64, ptr %2, align 8, !tbaa !75
  %4 = inttoptr i64 %3 to ptr
  ret ptr %4
}

; Function Attrs: mustprogress nounwind uwtable
define linkonce_odr noundef zeroext i1 @_ZN4absl12lts_202407226Status9IsInlinedEm(i64 noundef %0) #6 comdat align 2 {
  %2 = alloca i64, align 8
  store i64 %0, ptr %2, align 8, !tbaa !75
  %3 = load i64, ptr %2, align 8, !tbaa !75
  %4 = and i64 %3, 1
  %5 = icmp ne i64 %4, 0
  ret i1 %5
}

; Function Attrs: mustprogress nounwind uwtable
define linkonce_odr noundef i64 @_ZN4absl12lts_202407226Status16CodeToInlinedRepENS0_10StatusCodeE(i32 noundef %0) #6 comdat align 2 {
  %2 = alloca i32, align 4
  store i32 %0, ptr %2, align 4, !tbaa !148
  %3 = load i32, ptr %2, align 4, !tbaa !148
  %4 = sext i32 %3 to i64
  %5 = shl i64 %4, 2
  %6 = add i64 %5, 1
  ret i64 %6
}

; Function Attrs: mustprogress nounwind uwtable
define internal void @_ZNKSt14default_deleteIN9grpc_core12_GLOBAL__N_129ServiceConfigChannelArgFilterEEclEPS2_(ptr noundef nonnull align 1 dereferenceable(1) %0, ptr noundef %1) #6 align 2 {
  %3 = alloca ptr, align 8
  %4 = alloca ptr, align 8
  store ptr %0, ptr %3, align 8, !tbaa !655
  store ptr %1, ptr %4, align 8, !tbaa !128
  %5 = load ptr, ptr %4, align 8, !tbaa !128
  %6 = icmp eq ptr %5, null
  br i1 %6, label %8, label %7

7:                                                ; preds = %2
  call void @_ZN9grpc_core12_GLOBAL__N_129ServiceConfigChannelArgFilterD2Ev(ptr noundef nonnull align 8 dereferenceable(16) %5) #3
  call void @_ZdlPvm(ptr noundef %5, i64 noundef 16) #29
  br label %8

8:                                                ; preds = %7, %2
  ret void
}

; Function Attrs: mustprogress nounwind uwtable
define internal noundef nonnull align 1 dereferenceable(1) ptr @_ZNSt10unique_ptrIN9grpc_core12_GLOBAL__N_129ServiceConfigChannelArgFilterESt14default_deleteIS2_EE11get_deleterEv(ptr noundef nonnull align 8 dereferenceable(8) %0) #6 align 2 {
  %2 = alloca ptr, align 8
  store ptr %0, ptr %2, align 8, !tbaa !235
  %3 = load ptr, ptr %2, align 8
  %4 = getelementptr inbounds nuw %"class.std::unique_ptr.79", ptr %3, i32 0, i32 0
  %5 = call noundef nonnull align 1 dereferenceable(1) ptr @_ZNSt15__uniq_ptr_implIN9grpc_core12_GLOBAL__N_129ServiceConfigChannelArgFilterESt14default_deleteIS2_EE10_M_deleterEv(ptr noundef nonnull align 8 dereferenceable(8) %4) #3
  ret ptr %5
}

; Function Attrs: mustprogress nounwind uwtable
define internal noundef nonnull align 8 dereferenceable(8) ptr @_ZNSt15__uniq_ptr_implIN9grpc_core12_GLOBAL__N_129ServiceConfigChannelArgFilterESt14default_deleteIS2_EE6_M_ptrEv(ptr noundef nonnull align 8 dereferenceable(8) %0) #6 align 2 {
  %2 = alloca ptr, align 8
  store ptr %0, ptr %2, align 8, !tbaa !640
  %3 = load ptr, ptr %2, align 8
  %4 = getelementptr inbounds nuw %"class.std::__uniq_ptr_impl.81", ptr %3, i32 0, i32 0
  %5 = call noundef nonnull align 8 dereferenceable(8) ptr @_ZSt3getILm0EJPN9grpc_core12_GLOBAL__N_129ServiceConfigChannelArgFilterESt14default_deleteIS2_EEERNSt13tuple_elementIXT_ESt5tupleIJDpT0_EEE4typeERSA_(ptr noundef nonnull align 8 dereferenceable(8) %4) #3
  ret ptr %5
}

; Function Attrs: inlinehint mustprogress uwtable
define linkonce_odr void @_ZN4absl12lts_202407226Status5UnrefEm(i64 noundef %0) #17 comdat align 2 {
  %2 = alloca i64, align 8
  store i64 %0, ptr %2, align 8, !tbaa !75
  %3 = load i64, ptr %2, align 8, !tbaa !75
  %4 = call noundef zeroext i1 @_ZN4absl12lts_202407226Status9IsInlinedEm(i64 noundef %3)
  br i1 %4, label %8, label %5

5:                                                ; preds = %1
  %6 = load i64, ptr %2, align 8, !tbaa !75
  %7 = call noundef ptr @_ZN4absl12lts_202407226Status12RepToPointerEm(i64 noundef %6)
  call void @_ZNK4absl12lts_2024072215status_internal9StatusRep5UnrefEv(ptr noundef nonnull align 8 dereferenceable(48) %7)
  br label %8

8:                                                ; preds = %5, %1
  ret void
}

; Function Attrs: inlinehint mustprogress nounwind uwtable
define linkonce_odr noundef zeroext i1 @_ZNK4absl12lts_202407226Status2okEv(ptr noundef nonnull align 8 dereferenceable(8) %0) #10 comdat align 2 {
  %2 = alloca ptr, align 8
  store ptr %0, ptr %2, align 8, !tbaa !146
  %3 = load ptr, ptr %2, align 8
  %4 = getelementptr inbounds nuw %"class.absl::lts_20240722::Status", ptr %3, i32 0, i32 0
  %5 = load i64, ptr %4, align 8, !tbaa !150
  %6 = call noundef i64 @_ZN4absl12lts_202407226Status16CodeToInlinedRepENS0_10StatusCodeE(i32 noundef 0)
  %7 = icmp eq i64 %5, %6
  ret i1 %7
}

; Function Attrs: mustprogress nounwind uwtable
define internal void @_ZNSt10unique_ptrIN9grpc_core12_GLOBAL__N_129ServiceConfigChannelArgFilterESt14default_deleteIS2_EED2Ev(ptr noundef nonnull align 8 dereferenceable(8) %0) unnamed_addr #6 align 2 personality ptr @__gxx_personality_v0 {
  %2 = alloca ptr, align 8
  %3 = alloca ptr, align 8
  store ptr %0, ptr %2, align 8, !tbaa !235
  %4 = load ptr, ptr %2, align 8
  call void @llvm.lifetime.start.p0(i64 8, ptr %3) #3
  %5 = getelementptr inbounds nuw %"class.std::unique_ptr.79", ptr %4, i32 0, i32 0
  %6 = call noundef nonnull align 8 dereferenceable(8) ptr @_ZNSt15__uniq_ptr_implIN9grpc_core12_GLOBAL__N_129ServiceConfigChannelArgFilterESt14default_deleteIS2_EE6_M_ptrEv(ptr noundef nonnull align 8 dereferenceable(8) %5) #3
  store ptr %6, ptr %3, align 8, !tbaa !239
  %7 = load ptr, ptr %3, align 8, !tbaa !239
  %8 = load ptr, ptr %7, align 8, !tbaa !128
  %9 = icmp ne ptr %8, null
  br i1 %9, label %10, label %15

10:                                               ; preds = %1
  %11 = call noundef nonnull align 1 dereferenceable(1) ptr @_ZNSt10unique_ptrIN9grpc_core12_GLOBAL__N_129ServiceConfigChannelArgFilterESt14default_deleteIS2_EE11get_deleterEv(ptr noundef nonnull align 8 dereferenceable(8) %4) #3
  %12 = load ptr, ptr %3, align 8, !tbaa !239
  %13 = load ptr, ptr %12, align 8, !tbaa !128
  invoke void @_ZNKSt14default_deleteIN9grpc_core12_GLOBAL__N_129ServiceConfigChannelArgFilterEEclEPS2_(ptr noundef nonnull align 1 dereferenceable(1) %11, ptr noundef %13)
          to label %14 unwind label %17

14:                                               ; preds = %10
  br label %15

15:                                               ; preds = %14, %1
  %16 = load ptr, ptr %3, align 8, !tbaa !239
  store ptr null, ptr %16, align 8, !tbaa !128
  call void @llvm.lifetime.end.p0(i64 8, ptr %3) #3
  ret void

17:                                               ; preds = %10
  %18 = landingpad { ptr, i32 }
          catch ptr null
  %19 = extractvalue { ptr, i32 } %18, 0
  call void @__clang_call_terminate(ptr %19) #27
  unreachable
}

; Function Attrs: inlinehint mustprogress nounwind uwtable
define linkonce_odr void @_ZN4absl12lts_202407226StatusD2Ev(ptr noundef nonnull align 8 dereferenceable(8) %0) unnamed_addr #10 comdat align 2 personality ptr @__gxx_personality_v0 {
  %2 = alloca ptr, align 8
  store ptr %0, ptr %2, align 8, !tbaa !146
  %3 = load ptr, ptr %2, align 8
  %4 = getelementptr inbounds nuw %"class.absl::lts_20240722::Status", ptr %3, i32 0, i32 0
  %5 = load i64, ptr %4, align 8, !tbaa !150
  invoke void @_ZN4absl12lts_202407226Status5UnrefEm(i64 noundef %5)
          to label %6 unwind label %7

6:                                                ; preds = %1
  ret void

7:                                                ; preds = %1
  %8 = landingpad { ptr, i32 }
          catch ptr null
  %9 = extractvalue { ptr, i32 } %8, 0
  call void @__clang_call_terminate(ptr %9) #27
  unreachable
}

; Function Attrs: mustprogress nounwind uwtable
define internal noundef zeroext i1 @_ZNK4absl12lts_2024072217internal_statusor12StatusOrDataISt10unique_ptrIN9grpc_core12_GLOBAL__N_129ServiceConfigChannelArgFilterESt14default_deleteIS6_EEE2okEv(ptr noundef nonnull align 8 dereferenceable(16) %0) #6 align 2 {
  %2 = alloca ptr, align 8
  store ptr %0, ptr %2, align 8, !tbaa !237
  %3 = load ptr, ptr %2, align 8
  %4 = getelementptr inbounds nuw %"class.absl::lts_20240722::internal_statusor::StatusOrData", ptr %3, i32 0, i32 0
  %5 = call noundef zeroext i1 @_ZNK4absl12lts_202407226Status2okEv(ptr noundef nonnull align 8 dereferenceable(8) %4)
  ret i1 %5
}

; Function Attrs: mustprogress nounwind uwtable
define internal void @_ZN4absl12lts_2024072217internal_statusor12StatusOrDataISt10unique_ptrIN9grpc_core12_GLOBAL__N_129ServiceConfigChannelArgFilterESt14default_deleteIS6_EEED2Ev(ptr noundef nonnull align 8 dereferenceable(16) %0) unnamed_addr #6 align 2 {
  %2 = alloca ptr, align 8
  store ptr %0, ptr %2, align 8, !tbaa !237
  %3 = load ptr, ptr %2, align 8
  %4 = call noundef zeroext i1 @_ZNK4absl12lts_2024072217internal_statusor12StatusOrDataISt10unique_ptrIN9grpc_core12_GLOBAL__N_129ServiceConfigChannelArgFilterESt14default_deleteIS6_EEE2okEv(ptr noundef nonnull align 8 dereferenceable(16) %3)
  br i1 %4, label %5, label %8

5:                                                ; preds = %1
  %6 = getelementptr inbounds nuw %"class.absl::lts_20240722::internal_statusor::StatusOrData", ptr %3, i32 0, i32 0
  call void @_ZN4absl12lts_202407226StatusD2Ev(ptr noundef nonnull align 8 dereferenceable(8) %6) #3
  %7 = getelementptr inbounds nuw %"class.absl::lts_20240722::internal_statusor::StatusOrData", ptr %3, i32 0, i32 1
  call void @_ZNSt10unique_ptrIN9grpc_core12_GLOBAL__N_129ServiceConfigChannelArgFilterESt14default_deleteIS2_EED2Ev(ptr noundef nonnull align 8 dereferenceable(8) %7) #3
  br label %10

8:                                                ; preds = %1
  %9 = getelementptr inbounds nuw %"class.absl::lts_20240722::internal_statusor::StatusOrData", ptr %3, i32 0, i32 0
  call void @_ZN4absl12lts_202407226StatusD2Ev(ptr noundef nonnull align 8 dereferenceable(8) %9) #3
  br label %10

10:                                               ; preds = %8, %5
  ret void
}