; Function Attrs: mustprogress nounwind uwtable
define internal fastcc void @_ZN4absl12lts_2024072217internal_statusor12StatusOrDataISt10unique_ptrIN9grpc_core12_GLOBAL__N_129ServiceConfigChannelArgFilterESt14default_deleteIS6_EEED2Ev(ptr noundef nonnull align 8 captures(none) dereferenceable(16) %0) unnamed_addr #16 align 2 personality ptr @__gxx_personality_v0 {
  %.val = load i64, ptr %0, align 8, !tbaa !38
  %2 = icmp eq i64 %.val, 1
  br i1 %2, label %_ZN4absl12lts_202407226StatusD2Ev.exit, label %16

_ZN4absl12lts_202407226StatusD2Ev.exit:           ; preds = %1
  %3 = getelementptr inbounds nuw i8, ptr %0, i64 8
  %4 = load ptr, ptr %3, align 8, !tbaa !75
  %.not.i = icmp eq ptr %4, null
  br i1 %.not.i, label %_ZNSt10unique_ptrIN9grpc_core12_GLOBAL__N_129ServiceConfigChannelArgFilterESt14default_deleteIS2_EED2Ev.exit, label %5

5:                                                ; preds = %_ZN4absl12lts_202407226StatusD2Ev.exit
  %6 = getelementptr inbounds nuw i8, ptr %4, i64 8
  %7 = load ptr, ptr %6, align 8, !tbaa !80
  %.not.i.i.i.i = icmp eq ptr %7, null
  br i1 %.not.i.i.i.i, label %_ZNKSt14default_deleteIN9grpc_core12_GLOBAL__N_129ServiceConfigChannelArgFilterEEclEPS2_.exit.i, label %8

8:                                                ; preds = %5
  %9 = getelementptr inbounds nuw i8, ptr %7, i64 8
  %10 = atomicrmw sub ptr %9, i64 1 acq_rel, align 8
  %11 = icmp eq i64 %10, 1
  br i1 %11, label %12, label %_ZNKSt14default_deleteIN9grpc_core12_GLOBAL__N_129ServiceConfigChannelArgFilterEEclEPS2_.exit.i, !prof !83

12:                                               ; preds = %8
  %13 = load ptr, ptr %7, align 8, !tbaa !21
  %14 = getelementptr inbounds nuw i8, ptr %13, i64 8
  %15 = load ptr, ptr %14, align 8
  tail call void %15(ptr noundef nonnull align 8 dereferenceable(16) %7) #30
  br label %_ZNKSt14default_deleteIN9grpc_core12_GLOBAL__N_129ServiceConfigChannelArgFilterEEclEPS2_.exit.i

_ZNKSt14default_deleteIN9grpc_core12_GLOBAL__N_129ServiceConfigChannelArgFilterEEclEPS2_.exit.i: ; preds = %12, %8, %5
  tail call void @_ZdlPvm(ptr noundef nonnull %4, i64 noundef 16) #33
  br label %_ZNSt10unique_ptrIN9grpc_core12_GLOBAL__N_129ServiceConfigChannelArgFilterESt14default_deleteIS2_EED2Ev.exit

_ZNSt10unique_ptrIN9grpc_core12_GLOBAL__N_129ServiceConfigChannelArgFilterESt14default_deleteIS2_EED2Ev.exit: ; preds = %_ZN4absl12lts_202407226StatusD2Ev.exit, %_ZNKSt14default_deleteIN9grpc_core12_GLOBAL__N_129ServiceConfigChannelArgFilterEEclEPS2_.exit.i
  store ptr null, ptr %3, align 8, !tbaa !75
  br label %_ZN4absl12lts_202407226StatusD2Ev.exit2

16:                                               ; preds = %1
  %17 = and i64 %.val, 1
  %.not.i.i1 = icmp eq i64 %17, 0
  br i1 %.not.i.i1, label %18, label %_ZN4absl12lts_202407226StatusD2Ev.exit2

18:                                               ; preds = %16
  %19 = inttoptr i64 %.val to ptr
  invoke void @_ZNK4absl12lts_2024072215status_internal9StatusRep5UnrefEv(ptr noundef nonnull align 8 dereferenceable(48) %19)
          to label %_ZN4absl12lts_202407226StatusD2Ev.exit2 unwind label %20

20:                                               ; preds = %18
  %21 = landingpad { ptr, i32 }
          catch ptr null
  %22 = extractvalue { ptr, i32 } %21, 0
  tail call void @__clang_call_terminate(ptr %22) #34
  unreachable

_ZN4absl12lts_202407226StatusD2Ev.exit2:          ; preds = %18, %16, %_ZNSt10unique_ptrIN9grpc_core12_GLOBAL__N_129ServiceConfigChannelArgFilterESt14default_deleteIS2_EED2Ev.exit
  ret void
}